target datalayout = "e-m:e-p270:32:32-p271:32:32-p272:64:64-i64:64-i128:128-f80:128-n8:16:32:64-S128"
target triple = "x86_64-pc-linux-gnu"

%"class.std::vector" = type { %"struct.std::_Vector_base" }
%"struct.std::_Vector_base" = type { %"struct.std::_Vector_base<Constraint *, std::allocator<Constraint *>>::_Vector_impl" }
%"struct.std::_Vector_base<Constraint *, std::allocator<Constraint *>>::_Vector_impl" = type { %"struct.std::_Vector_base<Constraint *, std::allocator<Constraint *>>::_Vector_impl_data" }
%"struct.std::_Vector_base<Constraint *, std::allocator<Constraint *>>::_Vector_impl_data" = type { ptr, ptr, ptr }
%class.Block = type { %"class.std::vector.0", double, double, double, i8, i64, %"class.std::vector", %"class.std::vector" }
%"class.std::vector.0" = type { %"struct.std::_Vector_base.1" }
%"struct.std::_Vector_base.1" = type { %"struct.std::_Vector_base<Variable *, std::allocator<Variable *>>::_Vector_impl" }
%"struct.std::_Vector_base<Variable *, std::allocator<Variable *>>::_Vector_impl" = type { %"struct.std::_Vector_base<Variable *, std::allocator<Variable *>>::_Vector_impl_data" }
%"struct.std::_Vector_base<Variable *, std::allocator<Variable *>>::_Vector_impl_data" = type { ptr, ptr, ptr }
%"class.__gnu_cxx::__normal_iterator" = type { ptr }
%struct.Constraint = type <{ ptr, ptr, double, double, i64, i8, i8, [6 x i8] }>
%"struct.std::pair" = type { double, ptr }

@_ZN5BlockC1EP8Variable = unnamed_addr alias void (ptr, ptr), ptr @_ZN5BlockC2EP8Variable

; Function Attrs: mustprogress nounwind uwtable
define linkonce_odr void @_ZN9__gnu_cxx17__normal_iteratorIPP8VariableSt6vectorIS2_SaIS2_EEEC2ERKS3_(ptr noundef nonnull align 8 dereferenceable(8) %0, ptr noundef nonnull align 8 dereferenceable(8) %1) unnamed_addr #6 comdat align 2 {
  %3 = alloca ptr, align 8
  %4 = alloca ptr, align 8
  store ptr %0, ptr %3, align 8, !tbaa !46
  store ptr %1, ptr %4, align 8, !tbaa !138
  %5 = load ptr, ptr %3, align 8
  %6 = getelementptr inbounds nuw %"class.__gnu_cxx::__normal_iterator", ptr %5, i32 0, i32 0
  %7 = load ptr, ptr %4, align 8, !tbaa !138
  %8 = load ptr, ptr %7, align 8, !tbaa !35
  store ptr %8, ptr %6, align 8, !tbaa !48
  ret void
}

; Function Attrs: mustprogress nounwind uwtable
define linkonce_odr noundef nonnull align 8 dereferenceable(8) ptr @_ZNK9__gnu_cxx17__normal_iteratorIPP8VariableSt6vectorIS2_SaIS2_EEEdeEv(ptr noundef nonnull align 8 dereferenceable(8) %0) #6 comdat align 2 {
  %2 = alloca ptr, align 8
  store ptr %0, ptr %2, align 8, !tbaa !46
  %3 = load ptr, ptr %2, align 8
  %4 = getelementptr inbounds nuw %"class.__gnu_cxx::__normal_iterator", ptr %3, i32 0, i32 0
  %5 = load ptr, ptr %4, align 8, !tbaa !48
  ret ptr %5
}

; Function Attrs: mustprogress nounwind uwtable
define linkonce_odr ptr @_ZNSt6vectorIP8VariableSaIS1_EE5beginEv(ptr noundef nonnull align 8 dereferenceable(24) %0) #6 comdat align 2 {
  %2 = alloca %"class.__gnu_cxx::__normal_iterator", align 8
  %3 = alloca ptr, align 8
  store ptr %0, ptr %3, align 8, !tbaa !33
  %4 = load ptr, ptr %3, align 8
  %5 = getelementptr inbounds nuw %"struct.std::_Vector_base.1", ptr %4, i32 0, i32 0
  %6 = getelementptr inbounds nuw %"struct.std::_Vector_base<Variable *, std::allocator<Variable *>>::_Vector_impl_data", ptr %5, i32 0, i32 0
  call void @_ZN9__gnu_cxx17__normal_iteratorIPP8VariableSt6vectorIS2_SaIS2_EEEC2ERKS3_(ptr noundef nonnull align 8 dereferenceable(8) %2, ptr noundef nonnull align 8 dereferenceable(8) %6) #3
  %7 = getelementptr inbounds nuw %"class.__gnu_cxx::__normal_iterator", ptr %2, i32 0, i32 0
  %8 = load ptr, ptr %7, align 8
  ret ptr %8
}

; Function Attrs: mustprogress nounwind uwtable
define linkonce_odr noundef nonnull align 8 dereferenceable(8) ptr @_ZNSt6vectorIP8VariableSaIS1_EE5frontEv(ptr noundef nonnull align 8 dereferenceable(24) %0) #6 comdat align 2 {
  %2 = alloca ptr, align 8
  %3 = alloca %"class.__gnu_cxx::__normal_iterator", align 8
  store ptr %0, ptr %2, align 8, !tbaa !33
  %4 = load ptr, ptr %2, align 8
  call void @llvm.lifetime.start.p0(i64 8, ptr %3) #3
  %5 = call ptr @_ZNSt6vectorIP8VariableSaIS1_EE5beginEv(ptr noundef nonnull align 8 dereferenceable(24) %4) #3
  %6 = getelementptr inbounds nuw %"class.__gnu_cxx::__normal_iterator", ptr %3, i32 0, i32 0
  store ptr %5, ptr %6, align 8
  %7 = call noundef nonnull align 8 dereferenceable(8) ptr @_ZNK9__gnu_cxx17__normal_iteratorIPP8VariableSt6vectorIS2_SaIS2_EEEdeEv(ptr noundef nonnull align 8 dereferenceable(8) %3) #3
  call void @llvm.lifetime.end.p0(i64 8, ptr %3) #3
  ret ptr %7
}

; Function Attrs: mustprogress uwtable
define void @_ZN5Block5splitERPS_S1_P10Constraint(ptr noundef nonnull align 8 dereferenceable(112) %0, ptr noundef nonnull align 8 dereferenceable(8) %1, ptr noundef nonnull align 8 dereferenceable(8) %2, ptr noundef %3) #4 align 2 personality ptr @__gxx_personality_v0 {
  %5 = alloca ptr, align 8
  %6 = alloca ptr, align 8
  %7 = alloca ptr, align 8
  %8 = alloca ptr, align 8
  %9 = alloca ptr, align 8
  %10 = alloca i32, align 4
  store ptr %0, ptr %5, align 8, !tbaa !3
  store ptr %1, ptr %6, align 8, !tbaa !81
  store ptr %2, ptr %7, align 8, !tbaa !81
  store ptr %3, ptr %8, align 8, !tbaa !53
  %11 = load ptr, ptr %5, align 8
  %12 = load ptr, ptr %8, align 8, !tbaa !53
  %13 = getelementptr inbounds nuw %struct.Constraint, ptr %12, i32 0, i32 5
  store i8 0, ptr %13, align 8, !tbaa !67
  %14 = call noalias noundef nonnull ptr @_Znwm(i64 noundef 112) #18
  invoke void @_ZN5BlockC1EP8Variable(ptr noundef nonnull align 8 dereferenceable(112) %14, ptr noundef null)
          to label %15 unwind label %36

15:                                               ; preds = %4
  %16 = load ptr, ptr %6, align 8, !tbaa !81
  store ptr %14, ptr %16, align 8, !tbaa !3
  %17 = load ptr, ptr %6, align 8, !tbaa !81
  %18 = load ptr, ptr %17, align 8, !tbaa !3
  %19 = load ptr, ptr %8, align 8, !tbaa !53
  %20 = getelementptr inbounds nuw %struct.Constraint, ptr %19, i32 0, i32 0
  %21 = load ptr, ptr %20, align 8, !tbaa !58
  %22 = load ptr, ptr %8, align 8, !tbaa !53
  %23 = getelementptr inbounds nuw %struct.Constraint, ptr %22, i32 0, i32 1
  %24 = load ptr, ptr %23, align 8, !tbaa !59
  call void @_ZN5Block18populateSplitBlockEPS_P8VariableS2_(ptr noundef nonnull align 8 dereferenceable(112) %11, ptr noundef %18, ptr noundef %21, ptr noundef %24)
  %25 = call noalias noundef nonnull ptr @_Znwm(i64 noundef 112) #18
  invoke void @_ZN5BlockC1EP8Variable(ptr noundef nonnull align 8 dereferenceable(112) %25, ptr noundef null)
          to label %26 unwind label %40

26:                                               ; preds = %15
  %27 = load ptr, ptr %7, align 8, !tbaa !81
  store ptr %25, ptr %27, align 8, !tbaa !3
  %28 = load ptr, ptr %7, align 8, !tbaa !81
  %29 = load ptr, ptr %28, align 8, !tbaa !3
  %30 = load ptr, ptr %8, align 8, !tbaa !53
  %31 = getelementptr inbounds nuw %struct.Constraint, ptr %30, i32 0, i32 1
  %32 = load ptr, ptr %31, align 8, !tbaa !59
  %33 = load ptr, ptr %8, align 8, !tbaa !53
  %34 = getelementptr inbounds nuw %struct.Constraint, ptr %33, i32 0, i32 0
  %35 = load ptr, ptr %34, align 8, !tbaa !58
  call void @_ZN5Block18populateSplitBlockEPS_P8VariableS2_(ptr noundef nonnull align 8 dereferenceable(112) %11, ptr noundef %29, ptr noundef %32, ptr noundef %35)
  ret void

36:                                               ; preds = %4
  %37 = landingpad { ptr, i32 }
          cleanup
  %38 = extractvalue { ptr, i32 } %37, 0
  store ptr %38, ptr %9, align 8
  %39 = extractvalue { ptr, i32 } %37, 1
  store i32 %39, ptr %10, align 4
  call void @_ZdlPvm(ptr noundef %14, i64 noundef 112) #19
  br label %44

40:                                               ; preds = %15
  %41 = landingpad { ptr, i32 }
          cleanup
  %42 = extractvalue { ptr, i32 } %41, 0
  store ptr %42, ptr %9, align 8
  %43 = extractvalue { ptr, i32 } %41, 1
  store i32 %43, ptr %10, align 4
  call void @_ZdlPvm(ptr noundef %25, i64 noundef 112) #19
  br label %44

44:                                               ; preds = %40, %36
  %45 = load ptr, ptr %9, align 8
  %46 = load i32, ptr %10, align 4
  %47 = insertvalue { ptr, i32 } poison, ptr %45, 0
  %48 = insertvalue { ptr, i32 } %47, i32 %46, 1
  resume { ptr, i32 } %48
}

; Function Attrs: mustprogress uwtable
define noundef ptr @_ZN5Block16findMinLMBetweenEP8VariableS1_(ptr noundef nonnull align 8 dereferenceable(112) %0, ptr noundef %1, ptr noundef %2) #4 align 2 {
  %4 = alloca ptr, align 8
  %5 = alloca ptr, align 8
  %6 = alloca ptr, align 8
  %7 = alloca ptr, align 8
  %8 = alloca %"struct.std::pair", align 8
  store ptr %0, ptr %4, align 8, !tbaa !3
  store ptr %1, ptr %5, align 8, !tbaa !8
  store ptr %2, ptr %6, align 8, !tbaa !8
  %9 = load ptr, ptr %4, align 8
  call void @llvm.lifetime.start.p0(i64 8, ptr %7) #3
  store ptr null, ptr %7, align 8, !tbaa !53
  %10 = getelementptr inbounds nuw %class.Block, ptr %9, i32 0, i32 0
  %11 = call noundef nonnull align 8 dereferenceable(8) ptr @_ZNSt6vectorIP8VariableSaIS1_EE5frontEv(ptr noundef nonnull align 8 dereferenceable(24) %10) #3
  %12 = load ptr, ptr %11, align 8, !tbaa !8
  call void @_ZN5Block15reset_active_lmEP8VariableS1_(ptr noundef nonnull align 8 dereferenceable(112) %9, ptr noundef %12, ptr noundef null)
  call void @llvm.lifetime.start.p0(i64 16, ptr %8) #3
  %13 = load ptr, ptr %6, align 8, !tbaa !8
  %14 = load ptr, ptr %5, align 8, !tbaa !8
  %15 = call { double, ptr } @_ZN5Block20compute_dfdv_betweenEP8VariableS1_S1_NS_9DirectionEb(ptr noundef nonnull align 8 dereferenceable(112) %9, ptr noundef %13, ptr noundef %14, ptr noundef null, i32 noundef 0, i1 noundef zeroext false)
  %16 = getelementptr inbounds nuw { double, ptr }, ptr %8, i32 0, i32 0
  %17 = extractvalue { double, ptr } %15, 0
  store double %17, ptr %16, align 8
  %18 = getelementptr inbounds nuw { double, ptr }, ptr %8, i32 0, i32 1
  %19 = extractvalue { double, ptr } %15, 1
  store ptr %19, ptr %18, align 8
  %20 = getelementptr inbounds nuw %"struct.std::pair", ptr %8, i32 0, i32 1
  %21 = load ptr, ptr %20, align 8, !tbaa !76
  store ptr %21, ptr %7, align 8, !tbaa !53
  call void @llvm.lifetime.end.p0(i64 16, ptr %8) #3
  %22 = load ptr, ptr %7, align 8, !tbaa !53
  call void @llvm.lifetime.end.p0(i64 8, ptr %7) #3
  ret ptr %22
}

; Function Attrs: mustprogress uwtable
define noundef ptr @_ZN5Block12splitBetweenEP8VariableS1_RPS_S3_(ptr noundef nonnull align 8 dereferenceable(112) %0, ptr noundef %1, ptr noundef %2, ptr noundef nonnull align 8 dereferenceable(8) %3, ptr noundef nonnull align 8 dereferenceable(8) %4) #4 align 2 {
  %6 = alloca ptr, align 8
  %7 = alloca ptr, align 8
  %8 = alloca ptr, align 8
  %9 = alloca ptr, align 8
  %10 = alloca ptr, align 8
  %11 = alloca ptr, align 8
  store ptr %0, ptr %6, align 8, !tbaa !3
  store ptr %1, ptr %7, align 8, !tbaa !8
  store ptr %2, ptr %8, align 8, !tbaa !8
  store ptr %3, ptr %9, align 8, !tbaa !81
  store ptr %4, ptr %10, align 8, !tbaa !81
  %12 = load ptr, ptr %6, align 8
  call void @llvm.lifetime.start.p0(i64 8, ptr %11) #3
  %13 = load ptr, ptr %7, align 8, !tbaa !8
  %14 = load ptr, ptr %8, align 8, !tbaa !8
  %15 = call noundef ptr @_ZN5Block16findMinLMBetweenEP8VariableS1_(ptr noundef nonnull align 8 dereferenceable(112) %12, ptr noundef %13, ptr noundef %14)
  store ptr %15, ptr %11, align 8, !tbaa !53
  %16 = load ptr, ptr %9, align 8, !tbaa !81
  %17 = load ptr, ptr %10, align 8, !tbaa !81
  %18 = load ptr, ptr %11, align 8, !tbaa !53
  call void @_ZN5Block5splitERPS_S1_P10Constraint(ptr noundef nonnull align 8 dereferenceable(112) %12, ptr noundef nonnull align 8 dereferenceable(8) %16, ptr noundef nonnull align 8 dereferenceable(8) %17, ptr noundef %18)
  %19 = getelementptr inbounds nuw %class.Block, ptr %12, i32 0, i32 4
  store i8 1, ptr %19, align 8, !tbaa !39
  %20 = load ptr, ptr %11, align 8, !tbaa !53
  call void @llvm.lifetime.end.p0(i64 8, ptr %11) #3
  ret ptr %20
}