; Function Attrs: mustprogress uwtable
define noundef ptr @_ZN5Block12splitBetweenEP8VariableS1_RPS_S3_(ptr noundef nonnull align 8 dereferenceable(112) %0, ptr noundef %1, ptr noundef %2, ptr noundef nonnull writeonly align 8 captures(none) dereferenceable(8) %3, ptr noundef nonnull writeonly align 8 captures(none) dereferenceable(8) %4) local_unnamed_addr #3 align 2 personality ptr @__gxx_personality_v0 {
  %6 = load ptr, ptr %0, align 8, !tbaa !37
  %7 = load ptr, ptr %6, align 8, !tbaa !21
  tail call void @_ZN5Block15reset_active_lmEP8VariableS1_(ptr noundef nonnull align 8 dereferenceable(112) %0, ptr noundef %7, ptr noundef null)
  %8 = tail call { double, ptr } @_ZN5Block20compute_dfdv_betweenEP8VariableS1_S1_NS_9DirectionEb(ptr noundef nonnull align 8 dereferenceable(112) %0, ptr noundef %2, ptr noundef %1, ptr noundef null, i32 noundef 0, i1 noundef zeroext false)
  %9 = extractvalue { double, ptr } %8, 1
  %10 = getelementptr inbounds nuw i8, ptr %9, i64 40
  store i8 0, ptr %10, align 8, !tbaa !50
  %11 = tail call noalias noundef nonnull dereferenceable(112) ptr @_Znwm(i64 noundef 112) #18
  invoke void @_ZN5BlockC1EP8Variable(ptr noundef nonnull align 8 dereferenceable(112) %11, ptr noundef null)
          to label %12 unwind label %17

12:                                               ; preds = %5
  store ptr %11, ptr %3, align 8, !tbaa !61
  %13 = load ptr, ptr %9, align 8, !tbaa !47
  %14 = getelementptr inbounds nuw i8, ptr %9, i64 8
  %15 = load ptr, ptr %14, align 8, !tbaa !48
  tail call void @_ZN5Block18populateSplitBlockEPS_P8VariableS2_(ptr noundef nonnull align 8 dereferenceable(112) %0, ptr noundef nonnull %11, ptr noundef %13, ptr noundef %15)
  %16 = tail call noalias noundef nonnull dereferenceable(112) ptr @_Znwm(i64 noundef 112) #18
  invoke void @_ZN5BlockC1EP8Variable(ptr noundef nonnull align 8 dereferenceable(112) %16, ptr noundef null)
          to label %_ZN5Block5splitERPS_S1_P10Constraint.exit unwind label %19

17:                                               ; preds = %5
  %18 = landingpad { ptr, i32 }
          cleanup
  br label %21

19:                                               ; preds = %12
  %20 = landingpad { ptr, i32 }
          cleanup
  br label %21

21:                                               ; preds = %19, %17
  %.sink.i = phi ptr [ %16, %19 ], [ %11, %17 ]
  %.pn.i = phi { ptr, i32 } [ %20, %19 ], [ %18, %17 ]
  tail call void @_ZdlPvm(ptr noundef nonnull %.sink.i, i64 noundef 112) #19
  resume { ptr, i32 } %.pn.i

_ZN5Block5splitERPS_S1_P10Constraint.exit:        ; preds = %12
  store ptr %16, ptr %4, align 8, !tbaa !61
  %22 = load ptr, ptr %14, align 8, !tbaa !48
  %23 = load ptr, ptr %9, align 8, !tbaa !47
  tail call void @_ZN5Block18populateSplitBlockEPS_P8VariableS2_(ptr noundef nonnull align 8 dereferenceable(112) %0, ptr noundef nonnull %16, ptr noundef %22, ptr noundef %23)
  %24 = getelementptr inbounds nuw i8, ptr %0, i64 48
  store i8 1, ptr %24, align 8, !tbaa !51
  ret ptr %9
}